target datalayout = "e-m:e-p270:32:32-p271:32:32-p272:64:64-i64:64-i128:128-f80:128-n8:16:32:64-S128"
target triple = "x86_64-pc-linux-gnu"

%struct._YR_HASH_TABLE = type { i32, [0 x ptr] }
%struct._YR_HASH_TABLE_ENTRY = type { ptr, ptr, ptr, ptr }

; Function Attrs: nounwind uwtable
define i32 @hash(i32 noundef %0, ptr noundef %1, i32 noundef %2) #0 {
  %4 = alloca i32, align 4
  %5 = alloca ptr, align 8
  %6 = alloca i32, align 4
  %7 = alloca i32, align 4
  %8 = alloca i32, align 4
  store i32 %0, ptr %4, align 4
  store ptr %1, ptr %5, align 8
  store i32 %2, ptr %6, align 4
  %9 = load i32, ptr %4, align 4
  store i32 %9, ptr %8, align 4
  %10 = load i32, ptr %6, align 4
  %11 = sub nsw i32 %10, 1
  store i32 %11, ptr %7, align 4
  br label %12

12:                                               ; preds = %38, %3
  %13 = load i32, ptr %7, align 4
  %14 = icmp sgt i32 %13, 0
  br i1 %14, label %15, label %41

15:                                               ; preds = %12
  %16 = load ptr, ptr %5, align 8
  %17 = load i8, ptr %16, align 1
  %18 = zext i8 %17 to i64
  %19 = getelementptr inbounds [256 x i32], ptr @byte_to_int32, i64 0, i64 %18
  %20 = load i32, ptr %19, align 4
  %21 = load i32, ptr %7, align 4
  %22 = srem i32 %21, 32
  %23 = shl i32 %20, %22
  %24 = load ptr, ptr %5, align 8
  %25 = load i8, ptr %24, align 1
  %26 = zext i8 %25 to i64
  %27 = getelementptr inbounds [256 x i32], ptr @byte_to_int32, i64 0, i64 %26
  %28 = load i32, ptr %27, align 4
  %29 = load i32, ptr %7, align 4
  %30 = srem i32 %29, 32
  %31 = sub nsw i32 32, %30
  %32 = lshr i32 %28, %31
  %33 = or i32 %23, %32
  %34 = load i32, ptr %8, align 4
  %35 = xor i32 %34, %33
  store i32 %35, ptr %8, align 4
  %36 = load ptr, ptr %5, align 8
  %37 = getelementptr inbounds i8, ptr %36, i32 1
  store ptr %37, ptr %5, align 8
  br label %38

38:                                               ; preds = %15
  %39 = load i32, ptr %7, align 4
  %40 = add nsw i32 %39, -1
  store i32 %40, ptr %7, align 4
  br label %12

41:                                               ; preds = %12
  %42 = load ptr, ptr %5, align 8
  %43 = load i8, ptr %42, align 1
  %44 = zext i8 %43 to i64
  %45 = getelementptr inbounds [256 x i32], ptr @byte_to_int32, i64 0, i64 %44
  %46 = load i32, ptr %45, align 4
  %47 = load i32, ptr %8, align 4
  %48 = xor i32 %47, %46
  store i32 %48, ptr %8, align 4
  %49 = load i32, ptr %8, align 4
  ret i32 %49
}

; Function Attrs: nounwind uwtable
define ptr @yr_hash_table_lookup(ptr noundef %0, ptr noundef %1, ptr noundef %2) #0 {
  %4 = alloca ptr, align 8
  %5 = alloca ptr, align 8
  %6 = alloca ptr, align 8
  %7 = alloca ptr, align 8
  %8 = alloca ptr, align 8
  %9 = alloca i32, align 4
  store ptr %0, ptr %5, align 8
  store ptr %1, ptr %6, align 8
  store ptr %2, ptr %7, align 8
  %10 = load ptr, ptr %6, align 8
  %11 = load ptr, ptr %6, align 8
  %12 = call i64 @strlen(ptr noundef %11) #5
  %13 = trunc i64 %12 to i32
  %14 = call i32 @hash(i32 noundef 0, ptr noundef %10, i32 noundef %13)
  store i32 %14, ptr %9, align 4
  %15 = load ptr, ptr %7, align 8
  %16 = icmp ne ptr %15, null
  br i1 %16, label %17, label %24

17:                                               ; preds = %3
  %18 = load i32, ptr %9, align 4
  %19 = load ptr, ptr %7, align 8
  %20 = load ptr, ptr %7, align 8
  %21 = call i64 @strlen(ptr noundef %20) #5
  %22 = trunc i64 %21 to i32
  %23 = call i32 @hash(i32 noundef %18, ptr noundef %19, i32 noundef %22)
  store i32 %23, ptr %9, align 4
  br label %24

24:                                               ; preds = %17, %3
  %25 = load i32, ptr %9, align 4
  %26 = load ptr, ptr %5, align 8
  %27 = getelementptr inbounds %struct._YR_HASH_TABLE, ptr %26, i32 0, i32 0
  %28 = load i32, ptr %27, align 8
  %29 = urem i32 %25, %28
  store i32 %29, ptr %9, align 4
  %30 = load ptr, ptr %5, align 8
  %31 = getelementptr inbounds %struct._YR_HASH_TABLE, ptr %30, i32 0, i32 1
  %32 = load i32, ptr %9, align 4
  %33 = zext i32 %32 to i64
  %34 = getelementptr inbounds [0 x ptr], ptr %31, i64 0, i64 %33
  %35 = load ptr, ptr %34, align 8
  store ptr %35, ptr %8, align 8
  br label %36

36:                                               ; preds = %63, %24
  %37 = load ptr, ptr %8, align 8
  %38 = icmp ne ptr %37, null
  br i1 %38, label %39, label %67

39:                                               ; preds = %36
  %40 = load ptr, ptr %8, align 8
  %41 = getelementptr inbounds %struct._YR_HASH_TABLE_ENTRY, ptr %40, i32 0, i32 0
  %42 = load ptr, ptr %41, align 8
  %43 = load ptr, ptr %6, align 8
  %44 = call i32 @strcmp(ptr noundef %42, ptr noundef %43) #5
  %45 = icmp eq i32 %44, 0
  br i1 %45, label %46, label %63

46:                                               ; preds = %39
  %47 = load ptr, ptr %8, align 8
  %48 = getelementptr inbounds %struct._YR_HASH_TABLE_ENTRY, ptr %47, i32 0, i32 1
  %49 = load ptr, ptr %48, align 8
  %50 = load ptr, ptr %7, align 8
  %51 = icmp eq ptr %49, %50
  br i1 %51, label %59, label %52

52:                                               ; preds = %46
  %53 = load ptr, ptr %8, align 8
  %54 = getelementptr inbounds %struct._YR_HASH_TABLE_ENTRY, ptr %53, i32 0, i32 1
  %55 = load ptr, ptr %54, align 8
  %56 = load ptr, ptr %7, align 8
  %57 = call i32 @strcmp(ptr noundef %55, ptr noundef %56) #5
  %58 = icmp eq i32 %57, 0
  br i1 %58, label %59, label %63

59:                                               ; preds = %52, %46
  %60 = load ptr, ptr %8, align 8
  %61 = getelementptr inbounds %struct._YR_HASH_TABLE_ENTRY, ptr %60, i32 0, i32 2
  %62 = load ptr, ptr %61, align 8
  store ptr %62, ptr %4, align 8
  br label %68

63:                                               ; preds = %52, %39
  %64 = load ptr, ptr %8, align 8
  %65 = getelementptr inbounds %struct._YR_HASH_TABLE_ENTRY, ptr %64, i32 0, i32 3
  %66 = load ptr, ptr %65, align 8
  store ptr %66, ptr %8, align 8
  br label %36

67:                                               ; preds = %36
  store ptr null, ptr %4, align 8
  br label %68

68:                                               ; preds = %67, %59
  %69 = load ptr, ptr %4, align 8
  ret ptr %69
}