; Function Attrs: nofree nounwind memory(read, inaccessiblemem: none) uwtable
define ptr @yr_hash_table_lookup(ptr nocapture noundef readonly %0, ptr nocapture noundef readonly %1, ptr noundef readonly %2) local_unnamed_addr #4 {
  %4 = tail call i64 @strlen(ptr noundef nonnull dereferenceable(1) %1) #9
  %5 = trunc i64 %4 to i32
  %6 = icmp sgt i32 %5, 1
  br i1 %6, label %.lr.ph.i, label %hash.exit

.lr.ph.i:                                         ; preds = %3, %.lr.ph.i
  %.016.i = phi i32 [ %12, %.lr.ph.i ], [ 0, %3 ]
  %.012.in15.i = phi i32 [ %.012.i, %.lr.ph.i ], [ %5, %3 ]
  %.01314.i = phi ptr [ %13, %.lr.ph.i ], [ %1, %3 ]
  %.012.i = add nsw i32 %.012.in15.i, -1
  %7 = load i8, ptr %.01314.i, align 1
  %8 = zext i8 %7 to i64
  %9 = getelementptr inbounds [256 x i32], ptr @byte_to_int32, i64 0, i64 %8
  %10 = load i32, ptr %9, align 4
  %11 = tail call i32 @llvm.fshl.i32(i32 %10, i32 %10, i32 %.012.i)
  %12 = xor i32 %11, %.016.i
  %13 = getelementptr inbounds i8, ptr %.01314.i, i64 1
  %14 = icmp ugt i32 %.012.in15.i, 2
  br i1 %14, label %.lr.ph.i, label %._crit_edge.loopexit.i

._crit_edge.loopexit.i:                           ; preds = %.lr.ph.i
  %15 = and i64 %4, 2147483647
  %16 = getelementptr i8, ptr %1, i64 %15
  %scevgep.i = getelementptr i8, ptr %16, i64 -1
  br label %hash.exit

hash.exit:                                        ; preds = %3, %._crit_edge.loopexit.i
  %.013.lcssa.i = phi ptr [ %1, %3 ], [ %scevgep.i, %._crit_edge.loopexit.i ]
  %.0.lcssa.i = phi i32 [ 0, %3 ], [ %12, %._crit_edge.loopexit.i ]
  %17 = load i8, ptr %.013.lcssa.i, align 1
  %18 = zext i8 %17 to i64
  %19 = getelementptr inbounds [256 x i32], ptr @byte_to_int32, i64 0, i64 %18
  %20 = load i32, ptr %19, align 4
  %21 = xor i32 %20, %.0.lcssa.i
  %.not = icmp eq ptr %2, null
  br i1 %.not, label %41, label %22

22:                                               ; preds = %hash.exit
  %23 = tail call i64 @strlen(ptr noundef nonnull dereferenceable(1) %2) #9
  %24 = trunc i64 %23 to i32
  %25 = icmp sgt i32 %24, 1
  br i1 %25, label %.lr.ph.i27, label %hash.exit34

.lr.ph.i27:                                       ; preds = %22, %.lr.ph.i27
  %.016.i28 = phi i32 [ %31, %.lr.ph.i27 ], [ %21, %22 ]
  %.012.in15.i29 = phi i32 [ %.012.i31, %.lr.ph.i27 ], [ %24, %22 ]
  %.01314.i30 = phi ptr [ %32, %.lr.ph.i27 ], [ %2, %22 ]
  %.012.i31 = add nsw i32 %.012.in15.i29, -1
  %26 = load i8, ptr %.01314.i30, align 1
  %27 = zext i8 %26 to i64
  %28 = getelementptr inbounds [256 x i32], ptr @byte_to_int32, i64 0, i64 %27
  %29 = load i32, ptr %28, align 4
  %30 = tail call i32 @llvm.fshl.i32(i32 %29, i32 %29, i32 %.012.i31)
  %31 = xor i32 %30, %.016.i28
  %32 = getelementptr inbounds i8, ptr %.01314.i30, i64 1
  %33 = icmp ugt i32 %.012.in15.i29, 2
  br i1 %33, label %.lr.ph.i27, label %._crit_edge.loopexit.i32

._crit_edge.loopexit.i32:                         ; preds = %.lr.ph.i27
  %34 = and i64 %23, 2147483647
  %35 = getelementptr i8, ptr %2, i64 %34
  %scevgep.i33 = getelementptr i8, ptr %35, i64 -1
  br label %hash.exit34

hash.exit34:                                      ; preds = %22, %._crit_edge.loopexit.i32
  %.013.lcssa.i24 = phi ptr [ %2, %22 ], [ %scevgep.i33, %._crit_edge.loopexit.i32 ]
  %.0.lcssa.i25 = phi i32 [ %21, %22 ], [ %31, %._crit_edge.loopexit.i32 ]
  %36 = load i8, ptr %.013.lcssa.i24, align 1
  %37 = zext i8 %36 to i64
  %38 = getelementptr inbounds [256 x i32], ptr @byte_to_int32, i64 0, i64 %37
  %39 = load i32, ptr %38, align 4
  %40 = xor i32 %39, %.0.lcssa.i25
  br label %41

41:                                               ; preds = %hash.exit34, %hash.exit
  %.0 = phi i32 [ %40, %hash.exit34 ], [ %21, %hash.exit ]
  %42 = load i32, ptr %0, align 8
  %43 = urem i32 %.0, %42
  %44 = getelementptr inbounds i8, ptr %0, i64 8
  %45 = zext i32 %43 to i64
  %46 = getelementptr inbounds [0 x ptr], ptr %44, i64 0, i64 %45
  %.01937 = load ptr, ptr %46, align 8
  %.not2338 = icmp eq ptr %.01937, null
  br i1 %.not2338, label %.loopexit, label %.lr.ph

.lr.ph:                                           ; preds = %41, %60
  %.01939 = phi ptr [ %.019, %60 ], [ %.01937, %41 ]
  %47 = load ptr, ptr %.01939, align 8
  %48 = tail call i32 @strcmp(ptr noundef nonnull dereferenceable(1) %47, ptr noundef nonnull dereferenceable(1) %1) #9
  %49 = icmp eq i32 %48, 0
  br i1 %49, label %50, label %60

50:                                               ; preds = %.lr.ph
  %51 = getelementptr inbounds i8, ptr %.01939, i64 8
  %52 = load ptr, ptr %51, align 8
  %53 = icmp eq ptr %52, %2
  br i1 %53, label %57, label %54

54:                                               ; preds = %50
  %55 = tail call i32 @strcmp(ptr noundef nonnull dereferenceable(1) %52, ptr noundef nonnull dereferenceable(1) %2) #9
  %56 = icmp eq i32 %55, 0
  br i1 %56, label %57, label %60

57:                                               ; preds = %54, %50
  %58 = getelementptr inbounds i8, ptr %.01939, i64 16
  %59 = load ptr, ptr %58, align 8
  br label %.loopexit

60:                                               ; preds = %54, %.lr.ph
  %61 = getelementptr inbounds i8, ptr %.01939, i64 24
  %.019 = load ptr, ptr %61, align 8
  %.not23 = icmp eq ptr %.019, null
  br i1 %.not23, label %.loopexit, label %.lr.ph

.loopexit:                                        ; preds = %60, %41, %57
  %.020 = phi ptr [ %59, %57 ], [ null, %41 ], [ null, %60 ]
  ret ptr %.020
}